; Function Attrs: nounwind uwtable
define ptr @X509_time_adj_ex(ptr noundef %0, i32 noundef %1, i64 noundef %2, ptr noundef readonly captures(address_is_null) %3) local_unnamed_addr #0 {
  %5 = alloca i64, align 8
  call void @llvm.lifetime.start.p0(i64 8, ptr nonnull %5) #10
  %.not = icmp eq ptr %3, null
  br i1 %.not, label %8, label %6

6:                                                ; preds = %4
  %7 = load i64, ptr %3, align 8, !tbaa !101
  store i64 %7, ptr %5, align 8, !tbaa !101
  br label %10

8:                                                ; preds = %4
  %9 = call i64 @time(ptr noundef nonnull %5) #10
  br label %10

10:                                               ; preds = %8, %6
  %.not18 = icmp eq ptr %0, null
  br i1 %.not18, label %25, label %11

11:                                               ; preds = %10
  %12 = getelementptr inbounds nuw i8, ptr %0, i64 16
  %13 = load i64, ptr %12, align 8, !tbaa !102
  %14 = and i64 %13, 64
  %15 = icmp eq i64 %14, 0
  br i1 %15, label %16, label %25

16:                                               ; preds = %11
  %17 = getelementptr inbounds nuw i8, ptr %0, i64 4
  %18 = load i32, ptr %17, align 4, !tbaa !97
  switch i32 %18, label %25 [
    i32 23, label %19
    i32 24, label %22
  ]

19:                                               ; preds = %16
  %20 = load i64, ptr %5, align 8, !tbaa !101
  %21 = call ptr @ASN1_UTCTIME_adj(ptr noundef nonnull %0, i64 noundef %20, i32 noundef %1, i64 noundef %2) #10
  br label %28

22:                                               ; preds = %16
  %23 = load i64, ptr %5, align 8, !tbaa !101
  %24 = call ptr @ASN1_GENERALIZEDTIME_adj(ptr noundef nonnull %0, i64 noundef %23, i32 noundef %1, i64 noundef %2) #10
  br label %28

25:                                               ; preds = %16, %11, %10
  %26 = load i64, ptr %5, align 8, !tbaa !101
  %27 = call ptr @ASN1_TIME_adj(ptr noundef %0, i64 noundef %26, i32 noundef %1, i64 noundef %2) #10
  br label %28

28:                                               ; preds = %25, %22, %19
  %.0 = phi ptr [ %21, %19 ], [ %24, %22 ], [ %27, %25 ]
  call void @llvm.lifetime.end.p0(i64 8, ptr nonnull %5) #10
  ret ptr %.0
}